target datalayout = "e-m:e-p270:32:32-p271:32:32-p272:64:64-i64:64-i128:128-f80:128-n8:16:32:64-S128"
target triple = "x86_64-pc-linux-gnu"

%struct.TT_FaceRec_ = type { %struct.FT_FaceRec_, %struct.TTC_HeaderRec_, i64, i16, ptr, %struct.TT_Header_, %struct.TT_HoriHeader_, %struct.TT_MaxProfile_, i8, %struct.TT_VertHeader_, i16, %struct.TT_NameTableRec_, %struct.TT_OS2_, %struct.TT_Postscript_, ptr, i64, ptr, ptr, ptr, ptr, ptr, ptr, ptr, ptr, ptr, ptr, ptr, ptr, %struct.TT_Gasp_, %struct.TT_PCLT_, i64, ptr, %struct.TT_Post_NamesRec_, %struct.FT_Palette_Data_, i16, ptr, i8, %struct.FT_Color_, i64, ptr, i64, ptr, i64, ptr, ptr, %struct.FT_Generic_, ptr, i64, i64, i8, i8, ptr, i32, ptr, i32, i32, ptr, i64, i64, i64, ptr, ptr, i64, i32, i64, ptr, ptr, i64, i32, i32, ptr, ptr, i64, i32, i32, i32, %struct.TT_BDFRec_, i64, i64, i64, i64, ptr, ptr, ptr }
%struct.FT_FaceRec_ = type { i64, i64, i64, i64, i64, ptr, ptr, i32, ptr, i32, ptr, %struct.FT_Generic_, %struct.FT_BBox_, i16, i16, i16, i16, i16, i16, i16, i16, ptr, ptr, ptr, ptr, ptr, ptr, %struct.FT_ListRec_, %struct.FT_Generic_, ptr, ptr }
%struct.FT_BBox_ = type { i64, i64, i64, i64 }
%struct.FT_ListRec_ = type { ptr, ptr }
%struct.TTC_HeaderRec_ = type { i64, i64, i64, ptr }
%struct.TT_Header_ = type { i64, i64, i64, i64, i16, i16, [2 x i64], [2 x i64], i16, i16, i16, i16, i16, i16, i16, i16, i16 }
%struct.TT_HoriHeader_ = type { i64, i16, i16, i16, i16, i16, i16, i16, i16, i16, i16, [4 x i16], i16, i16, ptr, ptr }
%struct.TT_MaxProfile_ = type { i64, i16, i16, i16, i16, i16, i16, i16, i16, i16, i16, i16, i16, i16, i16 }
%struct.TT_VertHeader_ = type { i64, i16, i16, i16, i16, i16, i16, i16, i16, i16, i16, [4 x i16], i16, i16, ptr, ptr }
%struct.TT_NameTableRec_ = type { i16, i32, i32, ptr, i32, ptr, ptr }
%struct.TT_OS2_ = type { i16, i16, i16, i16, i16, i16, i16, i16, i16, i16, i16, i16, i16, i16, i16, i16, [10 x i8], i64, i64, i64, i64, [4 x i8], i16, i16, i16, i16, i16, i16, i16, i16, i64, i64, i16, i16, i16, i16, i16, i16, i16 }
%struct.TT_Postscript_ = type { i64, i64, i16, i16, i64, i64, i64, i64, i64 }
%struct.TT_Gasp_ = type { i16, i16, ptr }
%struct.TT_PCLT_ = type { i64, i64, i16, i16, i16, i16, i16, i16, [16 x i8], [8 x i8], [6 x i8], i8, i8, i8, i8 }
%struct.TT_Post_NamesRec_ = type { i8, i16, i16, ptr, ptr }
%struct.FT_Palette_Data_ = type { i16, ptr, ptr, i16, ptr }
%struct.FT_Color_ = type { i8, i8, i8, i8 }
%struct.FT_Generic_ = type { ptr, ptr }
%struct.TT_BDFRec_ = type { ptr, ptr, ptr, i64, i32, i8 }
%struct.CFF_FontRec_ = type { ptr, ptr, ptr, i64, i32, i32, i8, i8, i8, i32, i8, %struct.CFF_IndexRec_, %struct.CFF_IndexRec_, %struct.CFF_IndexRec_, %struct.CFF_EncodingRec_, %struct.CFF_CharsetRec_, %struct.CFF_IndexRec_, %struct.CFF_IndexRec_, %struct.CFF_IndexRec_, %struct.CFF_IndexRec_, ptr, ptr, i32, ptr, ptr, i64, %struct.CFF_SubFontRec_, i32, [256 x ptr], %struct.CFF_FDSelectRec_, ptr, ptr, ptr, ptr, ptr, ptr, %struct.FT_Generic_, %struct.CFF_VStoreRec_, ptr }
%struct.CFF_EncodingRec_ = type { i32, i64, i32, [256 x i16], [256 x i16] }
%struct.CFF_CharsetRec_ = type { i32, i64, ptr, ptr, i32, i32 }
%struct.CFF_IndexRec_ = type { ptr, i64, i32, i32, i8, i64, i64, ptr, ptr }
%struct.CFF_SubFontRec_ = type { %struct.CFF_FontRecDictRec_, %struct.CFF_PrivateRec_, %struct.CFF_BlendRec_, i32, ptr, ptr, ptr, i32, i32, %struct.CFF_IndexRec_, ptr, i32 }
%struct.CFF_FontRecDictRec_ = type { i32, i32, i32, i32, i32, i32, i8, i64, i64, i64, i32, i32, %struct.FT_Matrix_, i8, i64, %struct.FT_Vector_, i64, %struct.FT_BBox_, i64, i64, i64, i64, i64, i64, i64, i32, i32, i32, i64, i64, i64, i64, i64, i64, i64, i64, i32, i16, i16, i64, i32 }
%struct.FT_Matrix_ = type { i64, i64, i64, i64 }
%struct.FT_Vector_ = type { i64, i64 }
%struct.CFF_PrivateRec_ = type { i8, i8, i8, i8, [14 x i64], [10 x i64], [14 x i64], [10 x i64], i64, i64, i64, i64, i64, i8, i8, [13 x i64], [13 x i64], i8, i64, i32, i32, i64, i64, i64, i64, i64, i32, ptr }
%struct.CFF_BlendRec_ = type { i8, i8, ptr, i32, i32, ptr, i32, ptr }
%struct.CFF_FDSelectRec_ = type { i8, i32, ptr, i32, i32, i32, i8 }
%struct.CFF_VStoreRec_ = type { i32, ptr, i16, i32, ptr }
%struct.FT_SizeRec_ = type { ptr, %struct.FT_Generic_, %struct.FT_Size_Metrics_, ptr }
%struct.FT_Size_Metrics_ = type { i16, i16, i64, i64, i64, i64, i64, i64 }
%struct.PSH_Globals_FuncsRec_ = type { ptr, ptr, ptr }
%struct.CFF_InternalRec_ = type { ptr, [256 x ptr] }
%struct.FT_Size_InternalRec_ = type { ptr, i32, %struct.FT_Size_Metrics_ }
%struct.CFF_SizeRec_ = type { %struct.FT_SizeRec_, i64 }
%struct.PSHinter_Interface_ = type { ptr, ptr, ptr }

@.str.16 = private unnamed_addr constant [9 x i8] c"pshinter\00", align 1

; Function Attrs: nounwind uwtable
define internal ptr @cff_size_get_globals_funcs(ptr noundef %0) #0 {
  %2 = alloca ptr, align 8
  %3 = alloca ptr, align 8
  %4 = alloca ptr, align 8
  %5 = alloca ptr, align 8
  %6 = alloca ptr, align 8
  store ptr %0, ptr %2, align 8
  %7 = load ptr, ptr %2, align 8
  %8 = getelementptr inbounds %struct.CFF_SizeRec_, ptr %7, i32 0, i32 0
  %9 = getelementptr inbounds %struct.FT_SizeRec_, ptr %8, i32 0, i32 0
  %10 = load ptr, ptr %9, align 8
  store ptr %10, ptr %3, align 8
  %11 = load ptr, ptr %3, align 8
  %12 = getelementptr inbounds %struct.TT_FaceRec_, ptr %11, i32 0, i32 45
  %13 = getelementptr inbounds %struct.FT_Generic_, ptr %12, i32 0, i32 0
  %14 = load ptr, ptr %13, align 8
  store ptr %14, ptr %4, align 8
  %15 = load ptr, ptr %4, align 8
  %16 = getelementptr inbounds %struct.CFF_FontRec_, ptr %15, i32 0, i32 30
  %17 = load ptr, ptr %16, align 8
  store ptr %17, ptr %5, align 8
  %18 = load ptr, ptr %4, align 8
  %19 = getelementptr inbounds %struct.CFF_FontRec_, ptr %18, i32 0, i32 0
  %20 = load ptr, ptr %19, align 8
  %21 = call ptr @FT_Get_Module(ptr noundef %20, ptr noundef @.str.16)
  store ptr %21, ptr %6, align 8
  %22 = load ptr, ptr %6, align 8
  %23 = icmp ne ptr %22, null
  br i1 %23, label %24, label %38

24:                                               ; preds = %1
  %25 = load ptr, ptr %5, align 8
  %26 = icmp ne ptr %25, null
  br i1 %26, label %27, label %38

27:                                               ; preds = %24
  %28 = load ptr, ptr %5, align 8
  %29 = getelementptr inbounds %struct.PSHinter_Interface_, ptr %28, i32 0, i32 0
  %30 = load ptr, ptr %29, align 8
  %31 = icmp ne ptr %30, null
  br i1 %31, label %32, label %38

32:                                               ; preds = %27
  %33 = load ptr, ptr %5, align 8
  %34 = getelementptr inbounds %struct.PSHinter_Interface_, ptr %33, i32 0, i32 0
  %35 = load ptr, ptr %34, align 8
  %36 = load ptr, ptr %6, align 8
  %37 = call ptr %35(ptr noundef %36)
  br label %39

38:                                               ; preds = %27, %24, %1
  br label %39

39:                                               ; preds = %38, %32
  %40 = phi ptr [ %37, %32 ], [ null, %38 ]
  ret ptr %40
}

; Function Attrs: nounwind uwtable
define internal i32 @cff_size_select(ptr noundef %0, i64 noundef %1) #0 {
  %3 = alloca ptr, align 8
  %4 = alloca i64, align 8
  %5 = alloca ptr, align 8
  %6 = alloca ptr, align 8
  %7 = alloca ptr, align 8
  %8 = alloca ptr, align 8
  %9 = alloca ptr, align 8
  %10 = alloca i64, align 8
  %11 = alloca i32, align 4
  %12 = alloca ptr, align 8
  %13 = alloca i64, align 8
  %14 = alloca i64, align 8
  %15 = alloca i64, align 8
  store ptr %0, ptr %3, align 8
  store i64 %1, ptr %4, align 8
  %16 = load ptr, ptr %3, align 8
  store ptr %16, ptr %5, align 8
  %17 = load i64, ptr %4, align 8
  %18 = load ptr, ptr %5, align 8
  %19 = getelementptr inbounds %struct.CFF_SizeRec_, ptr %18, i32 0, i32 1
  store i64 %17, ptr %19, align 8
  %20 = load ptr, ptr %3, align 8
  %21 = getelementptr inbounds %struct.FT_SizeRec_, ptr %20, i32 0, i32 0
  %22 = load ptr, ptr %21, align 8
  %23 = load i64, ptr %4, align 8
  call void @FT_Select_Metrics(ptr noundef %22, i64 noundef %23)
  %24 = load ptr, ptr %5, align 8
  %25 = call ptr @cff_size_get_globals_funcs(ptr noundef %24)
  store ptr %25, ptr %6, align 8
  %26 = load ptr, ptr %6, align 8
  %27 = icmp ne ptr %26, null
  br i1 %27, label %28, label %122

28:                                               ; preds = %2
  %29 = load ptr, ptr %3, align 8
  %30 = getelementptr inbounds %struct.FT_SizeRec_, ptr %29, i32 0, i32 0
  %31 = load ptr, ptr %30, align 8
  store ptr %31, ptr %7, align 8
  %32 = load ptr, ptr %7, align 8
  %33 = getelementptr inbounds %struct.TT_FaceRec_, ptr %32, i32 0, i32 45
  %34 = getelementptr inbounds %struct.FT_Generic_, ptr %33, i32 0, i32 0
  %35 = load ptr, ptr %34, align 8
  store ptr %35, ptr %8, align 8
  %36 = load ptr, ptr %3, align 8
  %37 = getelementptr inbounds %struct.FT_SizeRec_, ptr %36, i32 0, i32 3
  %38 = load ptr, ptr %37, align 8
  %39 = getelementptr inbounds %struct.FT_Size_InternalRec_, ptr %38, i32 0, i32 0
  %40 = load ptr, ptr %39, align 8
  store ptr %40, ptr %9, align 8
  %41 = load ptr, ptr %8, align 8
  %42 = getelementptr inbounds %struct.CFF_FontRec_, ptr %41, i32 0, i32 26
  %43 = getelementptr inbounds %struct.CFF_SubFontRec_, ptr %42, i32 0, i32 0
  %44 = getelementptr inbounds %struct.CFF_FontRecDictRec_, ptr %43, i32 0, i32 14
  %45 = load i64, ptr %44, align 8
  store i64 %45, ptr %10, align 8
  %46 = load ptr, ptr %6, align 8
  %47 = getelementptr inbounds %struct.PSH_Globals_FuncsRec_, ptr %46, i32 0, i32 1
  %48 = load ptr, ptr %47, align 8
  %49 = load ptr, ptr %9, align 8
  %50 = getelementptr inbounds %struct.CFF_InternalRec_, ptr %49, i32 0, i32 0
  %51 = load ptr, ptr %50, align 8
  %52 = load ptr, ptr %3, align 8
  %53 = getelementptr inbounds %struct.FT_SizeRec_, ptr %52, i32 0, i32 2
  %54 = getelementptr inbounds %struct.FT_Size_Metrics_, ptr %53, i32 0, i32 2
  %55 = load i64, ptr %54, align 8
  %56 = load ptr, ptr %3, align 8
  %57 = getelementptr inbounds %struct.FT_SizeRec_, ptr %56, i32 0, i32 2
  %58 = getelementptr inbounds %struct.FT_Size_Metrics_, ptr %57, i32 0, i32 3
  %59 = load i64, ptr %58, align 8
  call void %48(ptr noundef %51, i64 noundef %55, i64 noundef %59, i64 noundef 0, i64 noundef 0)
  %60 = load ptr, ptr %8, align 8
  %61 = getelementptr inbounds %struct.CFF_FontRec_, ptr %60, i32 0, i32 27
  %62 = load i32, ptr %61, align 8
  store i32 %62, ptr %11, align 4
  br label %63

63:                                               ; preds = %118, %28
  %64 = load i32, ptr %11, align 4
  %65 = icmp ugt i32 %64, 0
  br i1 %65, label %66, label %121

66:                                               ; preds = %63
  %67 = load ptr, ptr %8, align 8
  %68 = getelementptr inbounds %struct.CFF_FontRec_, ptr %67, i32 0, i32 28
  %69 = load i32, ptr %11, align 4
  %70 = sub i32 %69, 1
  %71 = zext i32 %70 to i64
  %72 = getelementptr inbounds [256 x ptr], ptr %68, i64 0, i64 %71
  %73 = load ptr, ptr %72, align 8
  store ptr %73, ptr %12, align 8
  %74 = load ptr, ptr %12, align 8
  %75 = getelementptr inbounds %struct.CFF_SubFontRec_, ptr %74, i32 0, i32 0
  %76 = getelementptr inbounds %struct.CFF_FontRecDictRec_, ptr %75, i32 0, i32 14
  %77 = load i64, ptr %76, align 8
  store i64 %77, ptr %13, align 8
  %78 = load i64, ptr %10, align 8
  %79 = load i64, ptr %13, align 8
  %80 = icmp ne i64 %78, %79
  br i1 %80, label %81, label %96

81:                                               ; preds = %66
  %82 = load ptr, ptr %3, align 8
  %83 = getelementptr inbounds %struct.FT_SizeRec_, ptr %82, i32 0, i32 2
  %84 = getelementptr inbounds %struct.FT_Size_Metrics_, ptr %83, i32 0, i32 2
  %85 = load i64, ptr %84, align 8
  %86 = load i64, ptr %10, align 8
  %87 = load i64, ptr %13, align 8
  %88 = call i64 @FT_MulDiv(i64 noundef %85, i64 noundef %86, i64 noundef %87)
  store i64 %88, ptr %14, align 8
  %89 = load ptr, ptr %3, align 8
  %90 = getelementptr inbounds %struct.FT_SizeRec_, ptr %89, i32 0, i32 2
  %91 = getelementptr inbounds %struct.FT_Size_Metrics_, ptr %90, i32 0, i32 3
  %92 = load i64, ptr %91, align 8
  %93 = load i64, ptr %10, align 8
  %94 = load i64, ptr %13, align 8
  %95 = call i64 @FT_MulDiv(i64 noundef %92, i64 noundef %93, i64 noundef %94)
  store i64 %95, ptr %15, align 8
  br label %105

96:                                               ; preds = %66
  %97 = load ptr, ptr %3, align 8
  %98 = getelementptr inbounds %struct.FT_SizeRec_, ptr %97, i32 0, i32 2
  %99 = getelementptr inbounds %struct.FT_Size_Metrics_, ptr %98, i32 0, i32 2
  %100 = load i64, ptr %99, align 8
  store i64 %100, ptr %14, align 8
  %101 = load ptr, ptr %3, align 8
  %102 = getelementptr inbounds %struct.FT_SizeRec_, ptr %101, i32 0, i32 2
  %103 = getelementptr inbounds %struct.FT_Size_Metrics_, ptr %102, i32 0, i32 3
  %104 = load i64, ptr %103, align 8
  store i64 %104, ptr %15, align 8
  br label %105

105:                                              ; preds = %96, %81
  %106 = load ptr, ptr %6, align 8
  %107 = getelementptr inbounds %struct.PSH_Globals_FuncsRec_, ptr %106, i32 0, i32 1
  %108 = load ptr, ptr %107, align 8
  %109 = load ptr, ptr %9, align 8
  %110 = getelementptr inbounds %struct.CFF_InternalRec_, ptr %109, i32 0, i32 1
  %111 = load i32, ptr %11, align 4
  %112 = sub i32 %111, 1
  %113 = zext i32 %112 to i64
  %114 = getelementptr inbounds [256 x ptr], ptr %110, i64 0, i64 %113
  %115 = load ptr, ptr %114, align 8
  %116 = load i64, ptr %14, align 8
  %117 = load i64, ptr %15, align 8
  call void %108(ptr noundef %115, i64 noundef %116, i64 noundef %117, i64 noundef 0, i64 noundef 0)
  br label %118

118:                                              ; preds = %105
  %119 = load i32, ptr %11, align 4
  %120 = add i32 %119, -1
  store i32 %120, ptr %11, align 4
  br label %63, !llvm.loop !16

121:                                              ; preds = %63
  br label %122

122:                                              ; preds = %121, %2
  ret i32 0
}