; Function Attrs: nounwind uwtable
define internal noundef i32 @cff_size_select(ptr nocapture noundef %0, i64 noundef %1) #4 {
  %3 = getelementptr inbounds i8, ptr %0, i64 88
  store i64 %1, ptr %3, align 8
  %4 = load ptr, ptr %0, align 8
  tail call void @FT_Select_Metrics(ptr noundef %4, i64 noundef %1) #20
  %.val = load ptr, ptr %0, align 8
  %5 = getelementptr i8, ptr %.val, i64 1168
  %.val.val = load ptr, ptr %5, align 8
  %.val.val.val = load ptr, ptr %.val.val, align 8
  %6 = getelementptr i8, ptr %.val.val, i64 4952
  %.val.val.val42 = load ptr, ptr %6, align 8
  %7 = tail call ptr @FT_Get_Module(ptr noundef %.val.val.val, ptr noundef nonnull @.str.16) #20
  %8 = icmp ne ptr %7, null
  %9 = icmp ne ptr %.val.val.val42, null
  %or.cond.i = select i1 %8, i1 %9, i1 false
  br i1 %or.cond.i, label %10, label %cff_size_get_globals_funcs.exit.thread

10:                                               ; preds = %2
  %11 = load ptr, ptr %.val.val.val42, align 8
  %.not.i = icmp eq ptr %11, null
  br i1 %.not.i, label %cff_size_get_globals_funcs.exit.thread, label %cff_size_get_globals_funcs.exit

cff_size_get_globals_funcs.exit:                  ; preds = %10
  %12 = tail call ptr %11(ptr noundef nonnull %7) #20
  %.not = icmp eq ptr %12, null
  br i1 %.not, label %cff_size_get_globals_funcs.exit.thread, label %13

13:                                               ; preds = %cff_size_get_globals_funcs.exit
  %14 = load ptr, ptr %0, align 8
  %15 = getelementptr inbounds i8, ptr %14, i64 1168
  %16 = load ptr, ptr %15, align 8
  %17 = getelementptr inbounds i8, ptr %0, i64 80
  %18 = load ptr, ptr %17, align 8
  %19 = load ptr, ptr %18, align 8
  %20 = getelementptr inbounds i8, ptr %16, i64 1744
  %21 = load i64, ptr %20, align 8
  %22 = getelementptr inbounds i8, ptr %12, i64 8
  %23 = load ptr, ptr %22, align 8
  %24 = load ptr, ptr %19, align 8
  %25 = getelementptr inbounds i8, ptr %0, i64 32
  %26 = load i64, ptr %25, align 8
  %27 = getelementptr inbounds i8, ptr %0, i64 40
  %28 = load i64, ptr %27, align 8
  tail call void %23(ptr noundef %24, i64 noundef %26, i64 noundef %28, i64 noundef 0, i64 noundef 0) #20
  %29 = getelementptr inbounds i8, ptr %16, i64 2864
  %30 = load i32, ptr %29, align 8
  %.not4044 = icmp eq i32 %30, 0
  br i1 %.not4044, label %cff_size_get_globals_funcs.exit.thread, label %.lr.ph

.lr.ph:                                           ; preds = %13
  %31 = getelementptr inbounds i8, ptr %16, i64 2872
  %32 = getelementptr inbounds i8, ptr %19, i64 8
  %33 = zext i32 %30 to i64
  br label %34

34:                                               ; preds = %.lr.ph, %47
  %indvars.iv = phi i64 [ %33, %.lr.ph ], [ %35, %47 ]
  %35 = add nsw i64 %indvars.iv, -1
  %36 = getelementptr inbounds [256 x ptr], ptr %31, i64 0, i64 %35
  %37 = load ptr, ptr %36, align 8
  %38 = getelementptr inbounds i8, ptr %37, i64 104
  %39 = load i64, ptr %38, align 8
  %.not41 = icmp eq i64 %21, %39
  %40 = load i64, ptr %25, align 8
  br i1 %.not41, label %45, label %41

41:                                               ; preds = %34
  %42 = tail call i64 @FT_MulDiv(i64 noundef %40, i64 noundef %21, i64 noundef %39) #20
  %43 = load i64, ptr %27, align 8
  %44 = tail call i64 @FT_MulDiv(i64 noundef %43, i64 noundef %21, i64 noundef %39) #20
  br label %47

45:                                               ; preds = %34
  %46 = load i64, ptr %27, align 8
  br label %47

47:                                               ; preds = %45, %41
  %.035 = phi i64 [ %42, %41 ], [ %40, %45 ]
  %.0 = phi i64 [ %44, %41 ], [ %46, %45 ]
  %48 = load ptr, ptr %22, align 8
  %49 = getelementptr inbounds [256 x ptr], ptr %32, i64 0, i64 %35
  %50 = load ptr, ptr %49, align 8
  tail call void %48(ptr noundef %50, i64 noundef %.035, i64 noundef %.0, i64 noundef 0, i64 noundef 0) #20
  %.not40.wide = icmp eq i64 %35, 0
  br i1 %.not40.wide, label %cff_size_get_globals_funcs.exit.thread, label %34, !llvm.loop !19

cff_size_get_globals_funcs.exit.thread:           ; preds = %47, %13, %2, %10, %cff_size_get_globals_funcs.exit
  ret i32 0
}